; Function Attrs: mustprogress nofree norecurse nosync nounwind willreturn memory(read, argmem: readwrite, inaccessiblemem: none) uwtable
define hidden noundef ptr @_ZN9expr_rand16choose_func_declEv(ptr nocapture noundef nonnull align 8 dereferenceable(56) %this) local_unnamed_addr #6 align 2 {
entry:
  %m_nodes.i = getelementptr inbounds i8, ptr %this, i64 24
  %0 = load ptr, ptr %m_nodes.i, align 8
  %cmp.i.i = icmp eq ptr %0, null
  br i1 %cmp.i.i, label %_ZNK15ref_vector_coreI9func_decl19ref_manager_wrapperIS0_11ast_managerEE4sizeEv.exit, label %if.end.i.i

if.end.i.i:                                       ; preds = %entry
  %arrayidx.i.i = getelementptr inbounds i8, ptr %0, i64 -4
  %1 = load i32, ptr %arrayidx.i.i, align 4
  br label %_ZNK15ref_vector_coreI9func_decl19ref_manager_wrapperIS0_11ast_managerEE4sizeEv.exit

_ZNK15ref_vector_coreI9func_decl19ref_manager_wrapperIS0_11ast_managerEE4sizeEv.exit: ; preds = %entry, %if.end.i.i
  %retval.0.i.i = phi i32 [ %1, %if.end.i.i ], [ 0, %entry ]
  %m_random = getelementptr inbounds i8, ptr %this, i64 12
  %2 = load i32, ptr %m_random, align 4
  %mul.i.i = mul i32 %2, 214013
  %add.i.i = add i32 %mul.i.i, 2531011
  store i32 %add.i.i, ptr %m_random, align 4
  %shr.i.i = lshr i32 %add.i.i, 16
  %and.i.i = and i32 %shr.i.i, 32767
  %rem.i = urem i32 %and.i.i, %retval.0.i.i
  %idxprom.i.i = zext nneg i32 %rem.i to i64
  %arrayidx.i.i2 = getelementptr inbounds ptr, ptr %0, i64 %idxprom.i.i
  %3 = load ptr, ptr %arrayidx.i.i2, align 8
  ret ptr %3
}